target datalayout = "e-m:e-p270:32:32-p271:32:32-p272:64:64-i64:64-i128:128-f80:128-n8:16:32:64-S128"
target triple = "x86_64-pc-linux-gnu"

%struct.pmix_pointer_array_t = type { %struct.pmix_object_t, i32, i32, i32, i32, i32, ptr, ptr }
%struct.pmix_object_t = type { %union.pthread_mutex_t, ptr, i32, %struct.pmix_tma }
%union.pthread_mutex_t = type { %struct.__pthread_mutex_s }
%struct.__pthread_mutex_s = type { i32, i32, i32, i32, i32, i16, i16, %struct.__pthread_internal_list }
%struct.__pthread_internal_list = type { ptr, ptr }
%struct.pmix_tma = type { ptr, ptr, ptr, ptr, ptr, ptr, ptr, ptr }

; Function Attrs: nounwind uwtable
define i32 @pmix_pointer_array_set_item(ptr noundef %0, i32 noundef %1, ptr noundef %2) #0 {
  %4 = alloca i32, align 4
  %5 = alloca ptr, align 8
  %6 = alloca i32, align 4
  %7 = alloca ptr, align 8
  %8 = alloca i32, align 4
  %9 = alloca i32, align 4
  %10 = alloca i32, align 4
  %11 = alloca i32, align 4
  %12 = alloca i32, align 4
  %13 = alloca i32, align 4
  %14 = alloca i32, align 4
  %15 = alloca i32, align 4
  %16 = alloca i32, align 4
  %17 = alloca i32, align 4
  %18 = alloca i64, align 8
  store ptr %0, ptr %5, align 8, !tbaa !3
  store i32 %1, ptr %6, align 4, !tbaa !23
  store ptr %2, ptr %7, align 8, !tbaa !30
  %19 = load i32, ptr %6, align 4, !tbaa !23
  %20 = icmp sgt i32 0, %19
  %21 = xor i1 %20, true
  %22 = xor i1 %21, true
  %23 = zext i1 %22 to i32
  %24 = sext i32 %23 to i64
  %25 = call i64 @llvm.expect.i64(i64 %24, i64 0)
  %26 = icmp ne i64 %25, 0
  br i1 %26, label %27, label %28

27:                                               ; preds = %3
  store i32 -1, ptr %4, align 4
  br label %260

28:                                               ; preds = %3
  %29 = load ptr, ptr %5, align 8, !tbaa !3
  %30 = getelementptr inbounds nuw %struct.pmix_pointer_array_t, ptr %29, i32 0, i32 3
  %31 = load i32, ptr %30, align 8, !tbaa !16
  %32 = load i32, ptr %6, align 4, !tbaa !23
  %33 = icmp sle i32 %31, %32
  br i1 %33, label %34, label %40

34:                                               ; preds = %28
  %35 = load ptr, ptr %5, align 8, !tbaa !3
  %36 = load i32, ptr %6, align 4, !tbaa !23
  %37 = call zeroext i1 @grow_table(ptr noundef %35, i32 noundef %36)
  br i1 %37, label %39, label %38

38:                                               ; preds = %34
  store i32 -1, ptr %4, align 4
  br label %260

39:                                               ; preds = %34
  br label %40

40:                                               ; preds = %39, %28
  %41 = load ptr, ptr %7, align 8, !tbaa !30
  %42 = icmp eq ptr null, %41
  br i1 %42, label %43, label %93

43:                                               ; preds = %40
  %44 = load ptr, ptr %5, align 8, !tbaa !3
  %45 = getelementptr inbounds nuw %struct.pmix_pointer_array_t, ptr %44, i32 0, i32 7
  %46 = load ptr, ptr %45, align 8, !tbaa !20
  %47 = load i32, ptr %6, align 4, !tbaa !23
  %48 = sext i32 %47 to i64
  %49 = getelementptr inbounds ptr, ptr %46, i64 %48
  %50 = load ptr, ptr %49, align 8, !tbaa !30
  %51 = icmp ne ptr null, %50
  br i1 %51, label %52, label %92

52:                                               ; preds = %43
  %53 = load i32, ptr %6, align 4, !tbaa !23
  %54 = load ptr, ptr %5, align 8, !tbaa !3
  %55 = getelementptr inbounds nuw %struct.pmix_pointer_array_t, ptr %54, i32 0, i32 1
  %56 = load i32, ptr %55, align 8, !tbaa !8
  %57 = icmp slt i32 %53, %56
  br i1 %57, label %58, label %62

58:                                               ; preds = %52
  %59 = load i32, ptr %6, align 4, !tbaa !23
  %60 = load ptr, ptr %5, align 8, !tbaa !3
  %61 = getelementptr inbounds nuw %struct.pmix_pointer_array_t, ptr %60, i32 0, i32 1
  store i32 %59, ptr %61, align 8, !tbaa !8
  br label %62

62:                                               ; preds = %58, %52
  %63 = load ptr, ptr %5, align 8, !tbaa !3
  %64 = getelementptr inbounds nuw %struct.pmix_pointer_array_t, ptr %63, i32 0, i32 2
  %65 = load i32, ptr %64, align 4, !tbaa !15
  %66 = add nsw i32 %65, 1
  store i32 %66, ptr %64, align 4, !tbaa !15
  br label %67

67:                                               ; preds = %62
  call void @llvm.lifetime.start.p0(i64 4, ptr %8) #7
  call void @llvm.lifetime.start.p0(i64 4, ptr %9) #7
  br label %68

68:                                               ; preds = %67
  call void @llvm.lifetime.start.p0(i64 4, ptr %10) #7
  %69 = load i32, ptr %6, align 4, !tbaa !23
  store i32 %69, ptr %10, align 4, !tbaa !23
  %70 = load i32, ptr %10, align 4, !tbaa !23
  %71 = zext i32 %70 to i64
  %72 = udiv i64 %71, 64
  %73 = trunc i64 %72 to i32
  store i32 %73, ptr %8, align 4, !tbaa !23
  %74 = load i32, ptr %10, align 4, !tbaa !23
  %75 = zext i32 %74 to i64
  %76 = urem i64 %75, 64
  %77 = trunc i64 %76 to i32
  store i32 %77, ptr %9, align 4, !tbaa !23
  call void @llvm.lifetime.end.p0(i64 4, ptr %10) #7
  br label %78

78:                                               ; preds = %68
  br label %79

79:                                               ; preds = %78
  %80 = load i32, ptr %9, align 4, !tbaa !23
  %81 = zext i32 %80 to i64
  %82 = shl i64 1, %81
  %83 = load ptr, ptr %5, align 8, !tbaa !3
  %84 = getelementptr inbounds nuw %struct.pmix_pointer_array_t, ptr %83, i32 0, i32 6
  %85 = load ptr, ptr %84, align 8, !tbaa !19
  %86 = load i32, ptr %8, align 4, !tbaa !23
  %87 = zext i32 %86 to i64
  %88 = getelementptr inbounds nuw i64, ptr %85, i64 %87
  %89 = load i64, ptr %88, align 8, !tbaa !24
  %90 = xor i64 %89, %82
  store i64 %90, ptr %88, align 8, !tbaa !24
  call void @llvm.lifetime.end.p0(i64 4, ptr %9) #7
  call void @llvm.lifetime.end.p0(i64 4, ptr %8) #7
  br label %91

91:                                               ; preds = %79
  br label %92

92:                                               ; preds = %91, %43
  br label %252

93:                                               ; preds = %40
  %94 = load ptr, ptr %5, align 8, !tbaa !3
  %95 = getelementptr inbounds nuw %struct.pmix_pointer_array_t, ptr %94, i32 0, i32 7
  %96 = load ptr, ptr %95, align 8, !tbaa !20
  %97 = load i32, ptr %6, align 4, !tbaa !23
  %98 = sext i32 %97 to i64
  %99 = getelementptr inbounds ptr, ptr %96, i64 %98
  %100 = load ptr, ptr %99, align 8, !tbaa !30
  %101 = icmp eq ptr null, %100
  br i1 %101, label %102, label %250

102:                                              ; preds = %93
  %103 = load ptr, ptr %5, align 8, !tbaa !3
  %104 = getelementptr inbounds nuw %struct.pmix_pointer_array_t, ptr %103, i32 0, i32 2
  %105 = load i32, ptr %104, align 4, !tbaa !15
  %106 = add nsw i32 %105, -1
  store i32 %106, ptr %104, align 4, !tbaa !15
  br label %107

107:                                              ; preds = %102
  call void @llvm.lifetime.start.p0(i64 4, ptr %11) #7
  call void @llvm.lifetime.start.p0(i64 4, ptr %12) #7
  br label %108

108:                                              ; preds = %107
  call void @llvm.lifetime.start.p0(i64 4, ptr %13) #7
  %109 = load i32, ptr %6, align 4, !tbaa !23
  store i32 %109, ptr %13, align 4, !tbaa !23
  %110 = load i32, ptr %13, align 4, !tbaa !23
  %111 = zext i32 %110 to i64
  %112 = udiv i64 %111, 64
  %113 = trunc i64 %112 to i32
  store i32 %113, ptr %11, align 4, !tbaa !23
  %114 = load i32, ptr %13, align 4, !tbaa !23
  %115 = zext i32 %114 to i64
  %116 = urem i64 %115, 64
  %117 = trunc i64 %116 to i32
  store i32 %117, ptr %12, align 4, !tbaa !23
  call void @llvm.lifetime.end.p0(i64 4, ptr %13) #7
  br label %118

118:                                              ; preds = %108
  br label %119

119:                                              ; preds = %118
  %120 = load i32, ptr %12, align 4, !tbaa !23
  %121 = zext i32 %120 to i64
  %122 = shl i64 1, %121
  %123 = load ptr, ptr %5, align 8, !tbaa !3
  %124 = getelementptr inbounds nuw %struct.pmix_pointer_array_t, ptr %123, i32 0, i32 6
  %125 = load ptr, ptr %124, align 8, !tbaa !19
  %126 = load i32, ptr %11, align 4, !tbaa !23
  %127 = zext i32 %126 to i64
  %128 = getelementptr inbounds nuw i64, ptr %125, i64 %127
  %129 = load i64, ptr %128, align 8, !tbaa !24
  %130 = or i64 %129, %122
  store i64 %130, ptr %128, align 8, !tbaa !24
  call void @llvm.lifetime.end.p0(i64 4, ptr %12) #7
  call void @llvm.lifetime.end.p0(i64 4, ptr %11) #7
  br label %131

131:                                              ; preds = %119
  %132 = load i32, ptr %6, align 4, !tbaa !23
  %133 = load ptr, ptr %5, align 8, !tbaa !3
  %134 = getelementptr inbounds nuw %struct.pmix_pointer_array_t, ptr %133, i32 0, i32 1
  %135 = load i32, ptr %134, align 8, !tbaa !8
  %136 = icmp eq i32 %132, %135
  br i1 %136, label %137, label %249

137:                                              ; preds = %131
  br label %138

138:                                              ; preds = %137
  call void @llvm.lifetime.start.p0(i64 4, ptr %14) #7
  call void @llvm.lifetime.start.p0(i64 4, ptr %15) #7
  %139 = load ptr, ptr %5, align 8, !tbaa !3
  %140 = getelementptr inbounds nuw %struct.pmix_pointer_array_t, ptr %139, i32 0, i32 2
  %141 = load i32, ptr %140, align 4, !tbaa !15
  %142 = icmp eq i32 0, %141
  br i1 %142, label %143, label %149

143:                                              ; preds = %138
  %144 = load ptr, ptr %5, align 8, !tbaa !3
  %145 = getelementptr inbounds nuw %struct.pmix_pointer_array_t, ptr %144, i32 0, i32 3
  %146 = load i32, ptr %145, align 8, !tbaa !16
  %147 = load ptr, ptr %5, align 8, !tbaa !3
  %148 = getelementptr inbounds nuw %struct.pmix_pointer_array_t, ptr %147, i32 0, i32 1
  store i32 %146, ptr %148, align 8, !tbaa !8
  store i32 10, ptr %16, align 4
  br label %245

149:                                              ; preds = %138
  br label %150

150:                                              ; preds = %149
  call void @llvm.lifetime.start.p0(i64 4, ptr %17) #7
  %151 = load i32, ptr %6, align 4, !tbaa !23
  store i32 %151, ptr %17, align 4, !tbaa !23
  %152 = load i32, ptr %17, align 4, !tbaa !23
  %153 = zext i32 %152 to i64
  %154 = udiv i64 %153, 64
  %155 = trunc i64 %154 to i32
  store i32 %155, ptr %14, align 4, !tbaa !23
  %156 = load i32, ptr %17, align 4, !tbaa !23
  %157 = zext i32 %156 to i64
  %158 = urem i64 %157, 64
  %159 = trunc i64 %158 to i32
  store i32 %159, ptr %15, align 4, !tbaa !23
  call void @llvm.lifetime.end.p0(i64 4, ptr %17) #7
  br label %160

160:                                              ; preds = %150
  br label %161

161:                                              ; preds = %160
  br label %162

162:                                              ; preds = %172, %161
  %163 = load ptr, ptr %5, align 8, !tbaa !3
  %164 = getelementptr inbounds nuw %struct.pmix_pointer_array_t, ptr %163, i32 0, i32 6
  %165 = load ptr, ptr %164, align 8, !tbaa !19
  %166 = load i32, ptr %14, align 4, !tbaa !23
  %167 = zext i32 %166 to i64
  %168 = getelementptr inbounds nuw i64, ptr %165, i64 %167
  %169 = load i64, ptr %168, align 8, !tbaa !24
  %170 = icmp eq i64 %169, -1
  br i1 %170, label %171, label %175

171:                                              ; preds = %162
  br label %172

172:                                              ; preds = %171
  %173 = load i32, ptr %14, align 4, !tbaa !23
  %174 = add i32 %173, 1
  store i32 %174, ptr %14, align 4, !tbaa !23
  br label %162, !llvm.loop !36

175:                                              ; preds = %162
  call void @llvm.lifetime.start.p0(i64 8, ptr %18) #7
  %176 = load ptr, ptr %5, align 8, !tbaa !3
  %177 = getelementptr inbounds nuw %struct.pmix_pointer_array_t, ptr %176, i32 0, i32 6
  %178 = load ptr, ptr %177, align 8, !tbaa !19
  %179 = load i32, ptr %14, align 4, !tbaa !23
  %180 = zext i32 %179 to i64
  %181 = getelementptr inbounds nuw i64, ptr %178, i64 %180
  %182 = load i64, ptr %181, align 8, !tbaa !24
  store i64 %182, ptr %18, align 8, !tbaa !24
  store i32 0, ptr %15, align 4, !tbaa !23
  %183 = load i64, ptr %18, align 8, !tbaa !24
  %184 = and i64 %183, 4294967295
  %185 = icmp eq i64 4294967295, %184
  br i1 %185, label %186, label %191

186:                                              ; preds = %175
  %187 = load i64, ptr %18, align 8, !tbaa !24
  %188 = lshr i64 %187, 32
  store i64 %188, ptr %18, align 8, !tbaa !24
  %189 = load i32, ptr %15, align 4, !tbaa !23
  %190 = add i32 %189, 32
  store i32 %190, ptr %15, align 4, !tbaa !23
  br label %191

191:                                              ; preds = %186, %175
  %192 = load i64, ptr %18, align 8, !tbaa !24
  %193 = and i64 %192, 65535
  %194 = icmp eq i64 65535, %193
  br i1 %194, label %195, label %200

195:                                              ; preds = %191
  %196 = load i64, ptr %18, align 8, !tbaa !24
  %197 = lshr i64 %196, 16
  store i64 %197, ptr %18, align 8, !tbaa !24
  %198 = load i32, ptr %15, align 4, !tbaa !23
  %199 = add i32 %198, 16
  store i32 %199, ptr %15, align 4, !tbaa !23
  br label %200

200:                                              ; preds = %195, %191
  %201 = load i64, ptr %18, align 8, !tbaa !24
  %202 = and i64 %201, 255
  %203 = icmp eq i64 255, %202
  br i1 %203, label %204, label %209

204:                                              ; preds = %200
  %205 = load i64, ptr %18, align 8, !tbaa !24
  %206 = lshr i64 %205, 8
  store i64 %206, ptr %18, align 8, !tbaa !24
  %207 = load i32, ptr %15, align 4, !tbaa !23
  %208 = add i32 %207, 8
  store i32 %208, ptr %15, align 4, !tbaa !23
  br label %209

209:                                              ; preds = %204, %200
  %210 = load i64, ptr %18, align 8, !tbaa !24
  %211 = and i64 %210, 15
  %212 = icmp eq i64 15, %211
  br i1 %212, label %213, label %218

213:                                              ; preds = %209
  %214 = load i64, ptr %18, align 8, !tbaa !24
  %215 = lshr i64 %214, 4
  store i64 %215, ptr %18, align 8, !tbaa !24
  %216 = load i32, ptr %15, align 4, !tbaa !23
  %217 = add i32 %216, 4
  store i32 %217, ptr %15, align 4, !tbaa !23
  br label %218

218:                                              ; preds = %213, %209
  %219 = load i64, ptr %18, align 8, !tbaa !24
  %220 = and i64 %219, 3
  %221 = icmp eq i64 3, %220
  br i1 %221, label %222, label %227

222:                                              ; preds = %218
  %223 = load i64, ptr %18, align 8, !tbaa !24
  %224 = lshr i64 %223, 2
  store i64 %224, ptr %18, align 8, !tbaa !24
  %225 = load i32, ptr %15, align 4, !tbaa !23
  %226 = add i32 %225, 2
  store i32 %226, ptr %15, align 4, !tbaa !23
  br label %227

227:                                              ; preds = %222, %218
  %228 = load i64, ptr %18, align 8, !tbaa !24
  %229 = and i64 %228, 1
  %230 = icmp eq i64 1, %229
  br i1 %230, label %231, label %234

231:                                              ; preds = %227
  %232 = load i32, ptr %15, align 4, !tbaa !23
  %233 = add i32 %232, 1
  store i32 %233, ptr %15, align 4, !tbaa !23
  br label %234

234:                                              ; preds = %231, %227
  %235 = load i32, ptr %14, align 4, !tbaa !23
  %236 = mul i32 %235, 8
  %237 = zext i32 %236 to i64
  %238 = mul i64 %237, 8
  %239 = load i32, ptr %15, align 4, !tbaa !23
  %240 = zext i32 %239 to i64
  %241 = add i64 %238, %240
  %242 = trunc i64 %241 to i32
  %243 = load ptr, ptr %5, align 8, !tbaa !3
  %244 = getelementptr inbounds nuw %struct.pmix_pointer_array_t, ptr %243, i32 0, i32 1
  store i32 %242, ptr %244, align 8, !tbaa !8
  call void @llvm.lifetime.end.p0(i64 8, ptr %18) #7
  store i32 0, ptr %16, align 4
  br label %245

245:                                              ; preds = %234, %143
  call void @llvm.lifetime.end.p0(i64 4, ptr %15) #7
  call void @llvm.lifetime.end.p0(i64 4, ptr %14) #7
  %246 = load i32, ptr %16, align 4
  switch i32 %246, label %262 [
    i32 0, label %247
    i32 10, label %248
  ]

247:                                              ; preds = %245
  br label %248

248:                                              ; preds = %247, %245
  br label %249

249:                                              ; preds = %248, %131
  br label %251

250:                                              ; preds = %93
  br label %251

251:                                              ; preds = %250, %249
  br label %252

252:                                              ; preds = %251, %92
  %253 = load ptr, ptr %7, align 8, !tbaa !30
  %254 = load ptr, ptr %5, align 8, !tbaa !3
  %255 = getelementptr inbounds nuw %struct.pmix_pointer_array_t, ptr %254, i32 0, i32 7
  %256 = load ptr, ptr %255, align 8, !tbaa !20
  %257 = load i32, ptr %6, align 4, !tbaa !23
  %258 = sext i32 %257 to i64
  %259 = getelementptr inbounds ptr, ptr %256, i64 %258
  store ptr %253, ptr %259, align 8, !tbaa !30
  store i32 0, ptr %4, align 4
  br label %260

260:                                              ; preds = %252, %38, %27
  %261 = load i32, ptr %4, align 4
  ret i32 %261

262:                                              ; preds = %245
  unreachable
}