; Function Attrs: nounwind uwtable
define range(i32 -1, 1) i32 @pmix_pointer_array_set_item(ptr noundef %0, i32 noundef %1, ptr noundef %2) local_unnamed_addr #1 {
  %4 = icmp slt i32 %1, 0
  br i1 %4, label %91, label %5, !prof !29

5:                                                ; preds = %3
  %6 = getelementptr inbounds nuw i8, ptr %0, i64 128
  %7 = load i32, ptr %6, align 8, !tbaa !14
  %.not = icmp sgt i32 %7, %1
  br i1 %.not, label %10, label %8

8:                                                ; preds = %5
  %9 = tail call fastcc zeroext i1 @grow_table(ptr noundef nonnull %0, i32 noundef %1)
  br i1 %9, label %10, label %91

10:                                               ; preds = %8, %5
  %11 = icmp eq ptr %2, null
  %12 = getelementptr inbounds nuw i8, ptr %0, i64 152
  %13 = load ptr, ptr %12, align 8, !tbaa !20
  %14 = zext nneg i32 %1 to i64
  %15 = getelementptr inbounds nuw ptr, ptr %13, i64 %14
  %16 = load ptr, ptr %15, align 8, !tbaa !22
  %.not74 = icmp eq ptr %16, null
  br i1 %11, label %17, label %37

17:                                               ; preds = %10
  br i1 %.not74, label %89, label %18

18:                                               ; preds = %17
  %19 = getelementptr inbounds nuw i8, ptr %0, i64 120
  %20 = load i32, ptr %19, align 8, !tbaa !3
  %21 = icmp slt i32 %1, %20
  br i1 %21, label %22, label %23

22:                                               ; preds = %18
  store i32 %1, ptr %19, align 8, !tbaa !3
  br label %23

23:                                               ; preds = %22, %18
  %24 = getelementptr inbounds nuw i8, ptr %0, i64 124
  %25 = load i32, ptr %24, align 4, !tbaa !13
  %26 = add nsw i32 %25, 1
  store i32 %26, ptr %24, align 4, !tbaa !13
  %27 = lshr i32 %1, 6
  %28 = and i32 %1, 63
  %29 = zext nneg i32 %28 to i64
  %30 = shl nuw i64 1, %29
  %31 = getelementptr inbounds nuw i8, ptr %0, i64 144
  %32 = load ptr, ptr %31, align 8, !tbaa !18
  %33 = zext nneg i32 %27 to i64
  %34 = getelementptr inbounds nuw i64, ptr %32, i64 %33
  %35 = load i64, ptr %34, align 8, !tbaa !23
  %36 = xor i64 %35, %30
  store i64 %36, ptr %34, align 8, !tbaa !23
  br label %89

37:                                               ; preds = %10
  br i1 %.not74, label %38, label %89

38:                                               ; preds = %37
  %39 = getelementptr inbounds nuw i8, ptr %0, i64 124
  %40 = load i32, ptr %39, align 4, !tbaa !13
  %41 = add nsw i32 %40, -1
  store i32 %41, ptr %39, align 4, !tbaa !13
  %42 = lshr i32 %1, 6
  %43 = and i32 %1, 63
  %44 = zext nneg i32 %43 to i64
  %45 = shl nuw i64 1, %44
  %46 = getelementptr inbounds nuw i8, ptr %0, i64 144
  %47 = load ptr, ptr %46, align 8, !tbaa !18
  %48 = zext nneg i32 %42 to i64
  %49 = getelementptr inbounds nuw i64, ptr %47, i64 %48
  %50 = load i64, ptr %49, align 8, !tbaa !23
  %51 = or i64 %50, %45
  store i64 %51, ptr %49, align 8, !tbaa !23
  %52 = getelementptr inbounds nuw i8, ptr %0, i64 120
  %53 = load i32, ptr %52, align 8, !tbaa !3
  %54 = icmp eq i32 %1, %53
  br i1 %54, label %55, label %89

55:                                               ; preds = %38
  %56 = icmp eq i32 %41, 0
  br i1 %56, label %57, label %.preheader

57:                                               ; preds = %55
  %58 = load i32, ptr %6, align 8, !tbaa !14
  br label %88

.preheader:                                       ; preds = %55, %.preheader
  %.070 = phi i32 [ %63, %.preheader ], [ %42, %55 ]
  %59 = zext i32 %.070 to i64
  %60 = getelementptr inbounds nuw i64, ptr %47, i64 %59
  %61 = load i64, ptr %60, align 8, !tbaa !23
  %62 = icmp eq i64 %61, -1
  %63 = add i32 %.070, 1
  br i1 %62, label %.preheader, label %64, !llvm.loop !30

64:                                               ; preds = %.preheader
  %65 = and i64 %61, 4294967295
  %66 = icmp eq i64 %65, 4294967295
  %67 = lshr i64 %61, 32
  %spec.select = select i1 %66, i32 32, i32 0
  %spec.select75 = select i1 %66, i64 %67, i64 %61
  %68 = and i64 %spec.select75, 65535
  %69 = icmp eq i64 %68, 65535
  %70 = lshr i64 %spec.select75, 16
  %71 = or disjoint i32 %spec.select, 16
  %.166 = select i1 %69, i32 %71, i32 %spec.select
  %.1 = select i1 %69, i64 %70, i64 %spec.select75
  %72 = and i64 %.1, 255
  %73 = icmp eq i64 %72, 255
  %74 = lshr i64 %.1, 8
  %75 = or disjoint i32 %.166, 8
  %.267 = select i1 %73, i32 %75, i32 %.166
  %.2 = select i1 %73, i64 %74, i64 %.1
  %76 = and i64 %.2, 15
  %77 = icmp eq i64 %76, 15
  %78 = lshr i64 %.2, 4
  %79 = or disjoint i32 %.267, 4
  %.368 = select i1 %77, i32 %79, i32 %.267
  %.3 = select i1 %77, i64 %78, i64 %.2
  %80 = and i64 %.3, 3
  %81 = icmp eq i64 %80, 3
  %82 = lshr i64 %.3, 2
  %83 = add nuw nsw i32 %.368, 2
  %.469 = select i1 %81, i32 %83, i32 %.368
  %.4 = select i1 %81, i64 %82, i64 %.3
  %84 = trunc i64 %.4 to i32
  %85 = and i32 %84, 1
  %86 = shl i32 %.070, 6
  %.5 = add i32 %.469, %86
  %87 = add i32 %.5, %85
  br label %88

88:                                               ; preds = %64, %57
  %storemerge = phi i32 [ %87, %64 ], [ %58, %57 ]
  store i32 %storemerge, ptr %52, align 8, !tbaa !3
  br label %89

89:                                               ; preds = %88, %38, %37, %17, %23
  %90 = getelementptr inbounds nuw ptr, ptr %13, i64 %14
  store ptr %2, ptr %90, align 8, !tbaa !22
  br label %91

91:                                               ; preds = %8, %3, %89
  %.064 = phi i32 [ 0, %89 ], [ -1, %3 ], [ -1, %8 ]
  ret i32 %.064
}